; Function Attrs: mustprogress nofree norecurse nosync nounwind willreturn memory(read, inaccessiblemem: none) uwtable
define noundef zeroext i1 @_ZNK32pxrInternal_v0_24__pxrReserved__7SdfPath28ContainsPrimVariantSelectionEv(ptr nocapture noundef nonnull readonly align 4 dereferenceable(8) %0) local_unnamed_addr #8 align 2 personality ptr @__gxx_personality_v0 {
  %2 = load i32, ptr %0, align 4
  %3 = and i32 %2, 255
  %4 = zext nneg i32 %3 to i64
  %5 = getelementptr inbounds [257 x ptr], ptr @_ZN32pxrInternal_v0_24__pxrReserved__8Sdf_PoolINS_15Sdf_PathPrimTagELj24ELj8ELj16384EE13_regionStartsE, i64 0, i64 %4
  %6 = load ptr, ptr %5, align 8
  %.not = icmp eq ptr %6, null
  br i1 %.not, label %16, label %7

7:                                                ; preds = %1
  %8 = lshr i32 %2, 8
  %9 = mul nuw nsw i32 %8, 24
  %10 = zext nneg i32 %9 to i64
  %11 = getelementptr inbounds i8, ptr %6, i64 %10
  %12 = getelementptr inbounds nuw i8, ptr %11, i64 15
  %13 = load i8, ptr %12, align 1
  %14 = and i8 %13, 2
  %15 = icmp ne i8 %14, 0
  br label %16

16:                                               ; preds = %1, %7
  %.0 = phi i1 [ %15, %7 ], [ false, %1 ]
  ret i1 %.0
}